target datalayout = "e-m:e-p270:32:32-p271:32:32-p272:64:64-i64:64-i128:128-f80:128-n8:16:32:64-S128"
target triple = "x86_64-pc-linux-gnu"

%struct.rb_data_type_struct = type { ptr, %struct.anon, ptr, ptr, i64 }
%struct.anon = type { ptr, ptr, ptr, ptr, [1 x ptr] }
%struct.pkcs7_signer_info_st = type { ptr, ptr, ptr, ptr, ptr, ptr, ptr, ptr, ptr }

@ossl_pkcs7_type = internal constant %struct.rb_data_type_struct { ptr @.str.53, %struct.anon { ptr null, ptr @ossl_pkcs7_free, ptr null, ptr null, [1 x ptr] zeroinitializer }, ptr null, ptr null, i64 33 }, align 8
@ePKCS7Error = internal global i64 0, align 8
@rb_eRuntimeError = external global i64, align 8
@.str.1 = private unnamed_addr constant [26 x i8] c"PKCS7 wasn't initialized.\00", align 1
@ossl_pkcs7_signer_info_type = internal constant %struct.rb_data_type_struct { ptr @.str.76, %struct.anon { ptr null, ptr @ossl_pkcs7_signer_info_free, ptr null, ptr null, [1 x ptr] zeroinitializer }, ptr null, ptr null, i64 33 }, align 8
@.str.73 = private unnamed_addr constant [28 x i8] c"PKCS7si wasn't initialized.\00", align 1
@.str.74 = private unnamed_addr constant [22 x i8] c"PKCS7_SIGNER_INFO_dup\00", align 1
@.str.75 = private unnamed_addr constant [17 x i8] c"PKCS7_add_signer\00", align 1

; Function Attrs: nounwind sspstrong uwtable
define internal ptr @ossl_PKCS7_SIGNER_INFO_dup(ptr noundef %0) #0 {
  %2 = alloca ptr, align 8
  %3 = alloca ptr, align 8
  store ptr %0, ptr %2, align 8, !tbaa !40
  call void @llvm.lifetime.start.p0(i64 8, ptr %3) #16
  %4 = load ptr, ptr %2, align 8, !tbaa !40
  %5 = call ptr @ASN1_dup(ptr noundef @i2d_PKCS7_SIGNER_INFO, ptr noundef @d2i_PKCS7_SIGNER_INFO, ptr noundef %4)
  store ptr %5, ptr %3, align 8, !tbaa !40
  %6 = load ptr, ptr %3, align 8, !tbaa !40
  %7 = icmp ne ptr %6, null
  br i1 %7, label %8, label %23

8:                                                ; preds = %1
  %9 = load ptr, ptr %2, align 8, !tbaa !40
  %10 = getelementptr inbounds nuw %struct.pkcs7_signer_info_st, ptr %9, i32 0, i32 7
  %11 = load ptr, ptr %10, align 8, !tbaa !103
  %12 = icmp ne ptr %11, null
  br i1 %12, label %13, label %23

13:                                               ; preds = %8
  %14 = load ptr, ptr %2, align 8, !tbaa !40
  %15 = getelementptr inbounds nuw %struct.pkcs7_signer_info_st, ptr %14, i32 0, i32 7
  %16 = load ptr, ptr %15, align 8, !tbaa !103
  %17 = call i32 @EVP_PKEY_up_ref(ptr noundef %16)
  %18 = load ptr, ptr %2, align 8, !tbaa !40
  %19 = getelementptr inbounds nuw %struct.pkcs7_signer_info_st, ptr %18, i32 0, i32 7
  %20 = load ptr, ptr %19, align 8, !tbaa !103
  %21 = load ptr, ptr %3, align 8, !tbaa !40
  %22 = getelementptr inbounds nuw %struct.pkcs7_signer_info_st, ptr %21, i32 0, i32 7
  store ptr %20, ptr %22, align 8, !tbaa !103
  br label %23

23:                                               ; preds = %13, %8, %1
  %24 = load ptr, ptr %3, align 8, !tbaa !40
  call void @llvm.lifetime.end.p0(i64 8, ptr %3) #16
  ret ptr %24
}

; Function Attrs: nounwind sspstrong uwtable
define internal i64 @ossl_pkcs7_add_signer(i64 noundef %0, i64 noundef %1) #0 {
  %3 = alloca i64, align 8
  %4 = alloca i64, align 8
  %5 = alloca ptr, align 8
  %6 = alloca ptr, align 8
  %7 = alloca ptr, align 8
  store i64 %0, ptr %3, align 8, !tbaa !11
  store i64 %1, ptr %4, align 8, !tbaa !11
  call void @llvm.lifetime.start.p0(i64 8, ptr %5) #16
  call void @llvm.lifetime.start.p0(i64 8, ptr %6) #16
  call void @llvm.lifetime.start.p0(i64 8, ptr %7) #16
  br label %8

8:                                                ; preds = %2
  %9 = load i64, ptr %3, align 8, !tbaa !11
  %10 = call ptr @rb_check_typeddata(i64 noundef %9, ptr noundef @ossl_pkcs7_type)
  store ptr %10, ptr %5, align 8, !tbaa !6
  %11 = load ptr, ptr %5, align 8, !tbaa !6
  %12 = icmp ne ptr %11, null
  br i1 %12, label %15, label %13

13:                                               ; preds = %8
  %14 = load i64, ptr @rb_eRuntimeError, align 8, !tbaa !11
  call void (i64, ptr, ...) @ossl_raise(i64 noundef %14, ptr noundef @.str.1) #17
  unreachable

15:                                               ; preds = %8
  br label %16

16:                                               ; preds = %15
  br label %17

17:                                               ; preds = %16
  br label %18

18:                                               ; preds = %17
  %19 = load i64, ptr %4, align 8, !tbaa !11
  %20 = call ptr @rb_check_typeddata(i64 noundef %19, ptr noundef @ossl_pkcs7_signer_info_type)
  store ptr %20, ptr %6, align 8, !tbaa !40
  %21 = load ptr, ptr %6, align 8, !tbaa !40
  %22 = icmp ne ptr %21, null
  br i1 %22, label %25, label %23

23:                                               ; preds = %18
  %24 = load i64, ptr @rb_eRuntimeError, align 8, !tbaa !11
  call void (i64, ptr, ...) @ossl_raise(i64 noundef %24, ptr noundef @.str.73) #17
  unreachable

25:                                               ; preds = %18
  br label %26

26:                                               ; preds = %25
  br label %27

27:                                               ; preds = %26
  %28 = load ptr, ptr %6, align 8, !tbaa !40
  %29 = call ptr @ossl_PKCS7_SIGNER_INFO_dup(ptr noundef %28)
  store ptr %29, ptr %7, align 8, !tbaa !40
  %30 = load ptr, ptr %7, align 8, !tbaa !40
  %31 = icmp ne ptr %30, null
  br i1 %31, label %34, label %32

32:                                               ; preds = %27
  %33 = load i64, ptr @ePKCS7Error, align 8, !tbaa !11
  call void (i64, ptr, ...) @ossl_raise(i64 noundef %33, ptr noundef @.str.74) #17
  unreachable

34:                                               ; preds = %27
  %35 = load ptr, ptr %5, align 8, !tbaa !6
  %36 = load ptr, ptr %7, align 8, !tbaa !40
  %37 = call i32 @PKCS7_add_signer(ptr noundef %35, ptr noundef %36)
  %38 = icmp ne i32 %37, 1
  br i1 %38, label %39, label %42

39:                                               ; preds = %34
  %40 = load ptr, ptr %7, align 8, !tbaa !40
  call void @PKCS7_SIGNER_INFO_free(ptr noundef %40)
  %41 = load i64, ptr @ePKCS7Error, align 8, !tbaa !11
  call void (i64, ptr, ...) @ossl_raise(i64 noundef %41, ptr noundef @.str.75) #17
  unreachable

42:                                               ; preds = %34
  %43 = load i64, ptr %3, align 8, !tbaa !11
  call void @llvm.lifetime.end.p0(i64 8, ptr %7) #16
  call void @llvm.lifetime.end.p0(i64 8, ptr %6) #16
  call void @llvm.lifetime.end.p0(i64 8, ptr %5) #16
  ret i64 %43
}