; Function Attrs: nounwind sspstrong uwtable
define internal noundef i64 @ossl_pkcs7_add_signer(i64 noundef returned %0, i64 noundef %1) #0 {
  %3 = tail call ptr @rb_check_typeddata(i64 noundef %0, ptr noundef nonnull @ossl_pkcs7_type) #5
  %.not = icmp eq ptr %3, null
  br i1 %.not, label %4, label %6

4:                                                ; preds = %2
  %5 = load i64, ptr @rb_eRuntimeError, align 8, !tbaa !6
  tail call void (i64, ptr, ...) @ossl_raise(i64 noundef %5, ptr noundef nonnull @.str.1) #6
  unreachable

6:                                                ; preds = %2
  %7 = tail call ptr @rb_check_typeddata(i64 noundef %1, ptr noundef nonnull @ossl_pkcs7_signer_info_type) #5
  %.not11 = icmp eq ptr %7, null
  br i1 %.not11, label %8, label %10

8:                                                ; preds = %6
  %9 = load i64, ptr @rb_eRuntimeError, align 8, !tbaa !6
  tail call void (i64, ptr, ...) @ossl_raise(i64 noundef %9, ptr noundef nonnull @.str.73) #6
  unreachable

10:                                               ; preds = %6
  %11 = tail call ptr @ASN1_dup(ptr noundef nonnull @i2d_PKCS7_SIGNER_INFO, ptr noundef nonnull @d2i_PKCS7_SIGNER_INFO, ptr noundef nonnull %7) #5
  %.not.i = icmp eq ptr %11, null
  br i1 %.not.i, label %ossl_PKCS7_SIGNER_INFO_dup.exit, label %12

12:                                               ; preds = %10
  %13 = getelementptr inbounds nuw i8, ptr %7, i64 56
  %14 = load ptr, ptr %13, align 8, !tbaa !43
  %.not8.i = icmp eq ptr %14, null
  br i1 %.not8.i, label %20, label %15

15:                                               ; preds = %12
  %16 = tail call i32 @EVP_PKEY_up_ref(ptr noundef nonnull %14) #5
  %17 = load ptr, ptr %13, align 8, !tbaa !43
  %18 = getelementptr inbounds nuw i8, ptr %11, i64 56
  store ptr %17, ptr %18, align 8, !tbaa !43
  br label %20

ossl_PKCS7_SIGNER_INFO_dup.exit:                  ; preds = %10
  %19 = load i64, ptr @ePKCS7Error, align 8, !tbaa !6
  tail call void (i64, ptr, ...) @ossl_raise(i64 noundef %19, ptr noundef nonnull @.str.74) #6
  unreachable

20:                                               ; preds = %12, %15
  %21 = tail call i32 @PKCS7_add_signer(ptr noundef nonnull %3, ptr noundef nonnull %11) #5
  %.not13 = icmp eq i32 %21, 1
  br i1 %.not13, label %24, label %22

22:                                               ; preds = %20
  tail call void @PKCS7_SIGNER_INFO_free(ptr noundef nonnull %11) #5
  %23 = load i64, ptr @ePKCS7Error, align 8, !tbaa !6
  tail call void (i64, ptr, ...) @ossl_raise(i64 noundef %23, ptr noundef nonnull @.str.75) #6
  unreachable

24:                                               ; preds = %20
  ret i64 %0
}